target datalayout = "e-m:e-p270:32:32-p271:32:32-p272:64:64-i64:64-i128:128-f80:128-n8:16:32:64-S128"
target triple = "x86_64-pc-linux-gnu"

%struct._someip_payload_parameter_string = type { i32, ptr, ptr, i8, i32, i32, i8, i32 }

; Function Attrs: null_pointer_is_valid sspstrong uwtable
define internal ptr @copy_someip_parameter_string_list_cb(ptr noundef %0, ptr noundef %1, i64 noundef %2) #0 {
  %4 = alloca ptr, align 8
  %5 = alloca ptr, align 8
  %6 = alloca i64, align 8
  %7 = alloca ptr, align 8
  %8 = alloca ptr, align 8
  store ptr %0, ptr %4, align 8
  store ptr %1, ptr %5, align 8
  store i64 %2, ptr %6, align 8
  call void @llvm.lifetime.start.p0(i64 8, ptr %7) #19
  %9 = load ptr, ptr %4, align 8
  store ptr %9, ptr %7, align 8
  call void @llvm.lifetime.start.p0(i64 8, ptr %8) #19
  %10 = load ptr, ptr %5, align 8
  store ptr %10, ptr %8, align 8
  %11 = load ptr, ptr %8, align 8
  %12 = getelementptr inbounds nuw %struct._someip_payload_parameter_string, ptr %11, i32 0, i32 1
  %13 = load ptr, ptr %12, align 8
  %14 = icmp ne ptr %13, null
  br i1 %14, label %15, label %22

15:                                               ; preds = %3
  %16 = load ptr, ptr %8, align 8
  %17 = getelementptr inbounds nuw %struct._someip_payload_parameter_string, ptr %16, i32 0, i32 1
  %18 = load ptr, ptr %17, align 8
  %19 = call noalias ptr @g_strdup(ptr noundef %18)
  %20 = load ptr, ptr %7, align 8
  %21 = getelementptr inbounds nuw %struct._someip_payload_parameter_string, ptr %20, i32 0, i32 1
  store ptr %19, ptr %21, align 8
  br label %25

22:                                               ; preds = %3
  %23 = load ptr, ptr %7, align 8
  %24 = getelementptr inbounds nuw %struct._someip_payload_parameter_string, ptr %23, i32 0, i32 1
  store ptr null, ptr %24, align 8
  br label %25

25:                                               ; preds = %22, %15
  %26 = load ptr, ptr %8, align 8
  %27 = getelementptr inbounds nuw %struct._someip_payload_parameter_string, ptr %26, i32 0, i32 2
  %28 = load ptr, ptr %27, align 8
  %29 = icmp ne ptr %28, null
  br i1 %29, label %30, label %37

30:                                               ; preds = %25
  %31 = load ptr, ptr %8, align 8
  %32 = getelementptr inbounds nuw %struct._someip_payload_parameter_string, ptr %31, i32 0, i32 2
  %33 = load ptr, ptr %32, align 8
  %34 = call noalias ptr @g_strdup(ptr noundef %33)
  %35 = load ptr, ptr %7, align 8
  %36 = getelementptr inbounds nuw %struct._someip_payload_parameter_string, ptr %35, i32 0, i32 2
  store ptr %34, ptr %36, align 8
  br label %40

37:                                               ; preds = %25
  %38 = load ptr, ptr %7, align 8
  %39 = getelementptr inbounds nuw %struct._someip_payload_parameter_string, ptr %38, i32 0, i32 2
  store ptr null, ptr %39, align 8
  br label %40

40:                                               ; preds = %37, %30
  %41 = load ptr, ptr %8, align 8
  %42 = getelementptr inbounds nuw %struct._someip_payload_parameter_string, ptr %41, i32 0, i32 0
  %43 = load i32, ptr %42, align 8
  %44 = load ptr, ptr %7, align 8
  %45 = getelementptr inbounds nuw %struct._someip_payload_parameter_string, ptr %44, i32 0, i32 0
  store i32 %43, ptr %45, align 8
  %46 = load ptr, ptr %8, align 8
  %47 = getelementptr inbounds nuw %struct._someip_payload_parameter_string, ptr %46, i32 0, i32 3
  %48 = load i8, ptr %47, align 8, !range !6, !noundef !7
  %49 = trunc i8 %48 to i1
  %50 = load ptr, ptr %7, align 8
  %51 = getelementptr inbounds nuw %struct._someip_payload_parameter_string, ptr %50, i32 0, i32 3
  %52 = zext i1 %49 to i8
  store i8 %52, ptr %51, align 8
  %53 = load ptr, ptr %8, align 8
  %54 = getelementptr inbounds nuw %struct._someip_payload_parameter_string, ptr %53, i32 0, i32 4
  %55 = load i32, ptr %54, align 4
  %56 = load ptr, ptr %7, align 8
  %57 = getelementptr inbounds nuw %struct._someip_payload_parameter_string, ptr %56, i32 0, i32 4
  store i32 %55, ptr %57, align 4
  %58 = load ptr, ptr %8, align 8
  %59 = getelementptr inbounds nuw %struct._someip_payload_parameter_string, ptr %58, i32 0, i32 5
  %60 = load i32, ptr %59, align 8
  %61 = load ptr, ptr %7, align 8
  %62 = getelementptr inbounds nuw %struct._someip_payload_parameter_string, ptr %61, i32 0, i32 5
  store i32 %60, ptr %62, align 8
  %63 = load ptr, ptr %8, align 8
  %64 = getelementptr inbounds nuw %struct._someip_payload_parameter_string, ptr %63, i32 0, i32 6
  %65 = load i8, ptr %64, align 4, !range !6, !noundef !7
  %66 = trunc i8 %65 to i1
  %67 = load ptr, ptr %7, align 8
  %68 = getelementptr inbounds nuw %struct._someip_payload_parameter_string, ptr %67, i32 0, i32 6
  %69 = zext i1 %66 to i8
  store i8 %69, ptr %68, align 4
  %70 = load ptr, ptr %8, align 8
  %71 = getelementptr inbounds nuw %struct._someip_payload_parameter_string, ptr %70, i32 0, i32 7
  %72 = load i32, ptr %71, align 8
  %73 = load ptr, ptr %7, align 8
  %74 = getelementptr inbounds nuw %struct._someip_payload_parameter_string, ptr %73, i32 0, i32 7
  store i32 %72, ptr %74, align 8
  %75 = load ptr, ptr %7, align 8
  call void @llvm.lifetime.end.p0(i64 8, ptr %8) #19
  call void @llvm.lifetime.end.p0(i64 8, ptr %7) #19
  ret ptr %75
}