; Function Attrs: null_pointer_is_valid sspstrong uwtable
define internal noundef ptr @copy_someip_parameter_string_list_cb(ptr noundef returned writeonly captures(ret: address, provenance) initializes((0, 4), (8, 25), (28, 37), (40, 44)) %0, ptr noundef readonly captures(none) %1, i64 %2) #0 {
  %4 = getelementptr inbounds nuw i8, ptr %1, i64 8
  %5 = load ptr, ptr %4, align 8
  %.not = icmp eq ptr %5, null
  br i1 %.not, label %8, label %6

6:                                                ; preds = %3
  %7 = tail call noalias ptr @g_strdup(ptr noundef nonnull %5)
  br label %8

8:                                                ; preds = %3, %6
  %.sink = phi ptr [ %7, %6 ], [ null, %3 ]
  %9 = getelementptr inbounds nuw i8, ptr %0, i64 8
  store ptr %.sink, ptr %9, align 8
  %10 = getelementptr inbounds nuw i8, ptr %1, i64 16
  %11 = load ptr, ptr %10, align 8
  %.not24 = icmp eq ptr %11, null
  br i1 %.not24, label %14, label %12

12:                                               ; preds = %8
  %13 = tail call noalias ptr @g_strdup(ptr noundef nonnull %11)
  br label %14

14:                                               ; preds = %8, %12
  %.sink25 = phi ptr [ %13, %12 ], [ null, %8 ]
  %15 = getelementptr inbounds nuw i8, ptr %0, i64 16
  store ptr %.sink25, ptr %15, align 8
  %16 = load i32, ptr %1, align 8
  store i32 %16, ptr %0, align 8
  %17 = getelementptr inbounds nuw i8, ptr %1, i64 24
  %18 = load i8, ptr %17, align 8, !range !6, !noundef !7
  %19 = getelementptr inbounds nuw i8, ptr %0, i64 24
  store i8 %18, ptr %19, align 8
  %20 = getelementptr inbounds nuw i8, ptr %1, i64 28
  %21 = load i32, ptr %20, align 4
  %22 = getelementptr inbounds nuw i8, ptr %0, i64 28
  store i32 %21, ptr %22, align 4
  %23 = getelementptr inbounds nuw i8, ptr %1, i64 32
  %24 = load i32, ptr %23, align 8
  %25 = getelementptr inbounds nuw i8, ptr %0, i64 32
  store i32 %24, ptr %25, align 8
  %26 = getelementptr inbounds nuw i8, ptr %1, i64 36
  %27 = load i8, ptr %26, align 4, !range !6, !noundef !7
  %28 = getelementptr inbounds nuw i8, ptr %0, i64 36
  store i8 %27, ptr %28, align 4
  %29 = getelementptr inbounds nuw i8, ptr %1, i64 40
  %30 = load i32, ptr %29, align 8
  %31 = getelementptr inbounds nuw i8, ptr %0, i64 40
  store i32 %30, ptr %31, align 8
  ret ptr %0
}